Certificate:
    Data:
        Version: 1 (0x0)
        Serial Number: 3 (0x3)
        Signature Algorithm: sha256WithRSAEncryption
        Issuer: C=US, O=ONAP, OU=OSAAF, CN=intermediate
        Validity
            Not Before: May 28 06:34:02 2019 GMT
            Not After : May  4 06:34:02 2119 GMT
        Subject: C=US, O=ONAP, OU=OSAAF, CN=dmaap-mr
        Subject Public Key Info:
            Public Key Algorithm: rsaEncryption
                RSA Public-Key: (2048 bit)
                Modulus:
                    00:b3:69:90:49:e4:ac:84:ae:19:ac:0c:1c:f3:f4:
                    0d:1d:98:94:54:82:e5:43:06:32:a2:f8:8f:7c:bd:
                    bb:f2:65:75:39:74:98:a1:35:be:3f:31:54:d5:3b:
                    fa:1f:02:84:14:bd:ea:f6:2f:7f:cb:59:b4:0e:38:
                    4f:e1:fa:c7:a4:d5:55:4e:8e:4a:21:e0:af:e9:f2:
                    2c:01:89:e9:fe:9e:74:3f:71:0e:87:70:09:7a:1b:
                    59:9b:80:2d:c4:de:83:78:c9:5a:06:fd:75:19:85:
                    14:9b:a1:3a:d1:0d:fa:63:a5:a0:92:5a:bc:bb:52:
                    83:9e:06:09:cb:5f:d0:06:5f:1a:02:22:5b:8f:6b:
                    e9:2f:ae:16:48:8d:dc:c8:dc:ff:a9:e2:38:fc:fc:
                    47:b2:a0:47:50:52:3d:e8:67:0b:b4:b3:cb:0d:29:
                    48:41:6a:16:a1:98:64:89:04:c7:ad:4e:12:c7:9f:
                    e7:55:d5:a2:85:f7:34:47:4f:a3:1b:92:07:fa:60:
                    db:f1:65:0d:9b:21:e7:68:78:a7:ae:de:44:af:5b:
                    32:a5:4f:cd:c4:3f:8d:95:13:c5:3b:52:b8:0f:1e:
                    34:b3:17:c0:96:ed:8b:14:29:65:0e:04:92:fd:77:
                    1f:b1:ed:27:cb:f4:eb:2f:64:56:10:ba:08:3b:3f:
                    4d:8d
                Exponent: 65537 (0x10001)
    Signature Algorithm: sha256WithRSAEncryption
         d2:43:ab:0f:cb:02:ff:00:56:eb:6a:1a:58:b9:df:a3:0f:47:
         cf:e2:f3:43:7a:c8:b5:74:68:36:3f:82:1c:58:3a:32:86:5d:
         2b:d2:81:74:e8:0f:6b:1b:40:45:40:f4:3a:d5:e4:1d:d0:c8:
         33:89:ce:a0:0a:7a:75:13:2a:fb:17:3b:f0:9b:23:07:b1:92:
         16:0a:5a:e0:b2:b6:56:cc:47:7d:3f:4d:c9:ce:5e:1b:56:0a:
         36:c0:b2:2a:6a:10:33:ec:b9:4c:ff:d2:a4:22:62:16:0e:30:
         b6:bb:4c:c9:e5:c6:03:2f:45:62:1b:55:2c:fb:2b:c8:23:a7:
         41:16:1b:cd:21:06:c0:01:5e:71:97:9b:bb:21:26:4c:0c:88:
         c4:f4:3e:9a:07:5c:2c:c0:4e:06:18:0c:b4:fe:69:39:0e:9b:
         49:91:30:3d:e3:7e:82:ad:6a:09:f2:7a:7f:c3:07:b2:22:98:
         ef:74:00:6d:5b:d5:c5:1b:f7:00:3f:14:cc:41:ad:66:54:65:
         94:26:b2:10:f3:06:87:da:45:79:44:f8:41:6a:9d:13:98:08:
         c4:9e:de:45:4b:a4:ca:a5:1b:a3:82:a0:fc:e8:aa:29:c7:43:
         84:cb:cf:1a:4a:27:c6:c1:85:bc:06:62:e4:bb:e0:93:0e:8b:
         fd:33:06:c0:17:a2:e4:49:0f:5d:be:7d:f3:da:5c:b5:20:29:
         b1:c6:95:5a:33:94:d9:2d:ea:f1:e3:f0:94:67:3a:db:a1:e3:
         b1:d1:31:fd:a8:53:a9:c4:7e:13:7f:d7:6e:4b:cf:dc:6a:b7:
         05:d1:4e:07:68:ba:05:ab:48:f1:17:d6:ed:3b:26:96:7d:aa:
         f3:e6:4a:4e:27:5d:0a:b6:ed:8d:d7:0c:6a:c5:2c:96:d5:8b:
         31:b3:13:07:c6:fa:42:a8:fe:30:99:eb:1b:57:b0:fa:22:dc:
         f7:1b:ad:16:f0:70:36:c3:41:d8:97:0f:aa:c6:8c:c2:eb:98:
         e1:89:2c:ec:8e:e5:6d:c7:1c:0f:00:88:c4:fa:cb:52:b1:c1:
         2e:e1:4f:34:54:de:d9:25:45:bc:eb:37:6b:6a:a3:5e:e0:41:
         aa:ca:f6:36:61:3a:89:63:40:16:cf:dd:bd:97:11:d6:75:48:
         6d:c1:0e:64:a3:ad:ef:9e:6c:a4:0c:df:c2:0e:ac:12:7b:ff:
         36:64:98:26:f0:96:c5:9a:9f:f3:c6:63:70:e3:e4:24:74:ad:
         08:c8:d3:55:a0:15:7a:57:a4:ce:ae:ed:f6:68:f2:1e:7c:d8:
         96:35:74:7a:79:d0:e9:56:2c:bd:c5:d3:40:d1:cd:f9:b3:cc:
         fc:c7:46:3d:57:79:3f:a7
-----BEGIN CERTIFICATE-----
MIID+DCCAeACAQMwDQYJKoZIhvcNAQELBQAwQzELMAkGA1UEBhMCVVMxDTALBgNV
BAoMBE9OQVAxDjAMBgNVBAsMBU9TQUFGMRUwEwYDVQQDDAxpbnRlcm1lZGlhdGUw
IBcNMTkwNTI4MDYzNDAyWhgPMjExOTA1MDQwNjM0MDJaMD8xCzAJBgNVBAYTAlVT
MQ0wCwYDVQQKDARPTkFQMQ4wDAYDVQQLDAVPU0FBRjERMA8GA1UEAwwIZG1hYXAt
bXIwggEiMA0GCSqGSIb3DQEBAQUAA4IBDwAwggEKAoIBAQCzaZBJ5KyErhmsDBzz
9A0dmJRUguVDBjKi+I98vbvyZXU5dJihNb4/MVTVO/ofAoQUver2L3/LWbQOOE/h
+sek1VVOjkoh4K/p8iwBien+nnQ/cQ6HcAl6G1mbgC3E3oN4yVoG/XUZhRSboTrR
DfpjpaCSWry7UoOeBgnLX9AGXxoCIluPa+kvrhZIjdzI3P+p4jj8/EeyoEdQUj3o
Zwu0s8sNKUhBahahmGSJBMetThLHn+dV1aKF9zRHT6Mbkgf6YNvxZQ2bIedoeKeu
3kSvWzKlT83EP42VE8U7UrgPHjSzF8CW7YsUKWUOBJL9dx+x7SfL9OsvZFYQugg7
P02NAgMBAAEwDQYJKoZIhvcNAQELBQADggIBANJDqw/LAv8AVutqGli536MPR8/i
80N6yLV0aDY/ghxYOjKGXSvSgXToD2sbQEVA9DrV5B3QyDOJzqAKenUTKvsXO/Cb
IwexkhYKWuCytlbMR30/TcnOXhtWCjbAsipqEDPsuUz/0qQiYhYOMLa7TMnlxgMv
RWIbVSz7K8gjp0EWG80hBsABXnGXm7shJkwMiMT0PpoHXCzATgYYDLT+aTkOm0mR
MD3jfoKtagnyen/DB7IimO90AG1b1cUb9wA/FMxBrWZUZZQmshDzBofaRXlE+EFq
nROYCMSe3kVLpMqlG6OCoPzoqinHQ4TLzxpKJ8bBhbwGYuS74JMOi/0zBsAXouRJ
D12+ffPaXLUgKbHGlVozlNkt6vHj8JRnOtuh47HRMf2oU6nEfhN/125Lz9xqtwXR
TgdougWrSPEX1u07JpZ9qvPmSk4nXQq27Y3XDGrFLJbVizGzEwfG+kKo/jCZ6xtX
sPoi3PcbrRbwcDbDQdiXD6rGjMLrmOGJLOyO5W3HHA8AiMT6y1KxwS7hTzRU3tkl
RbzrN2tqo17gQarK9jZhOoljQBbP3b2XEdZ1SG3BDmSjre+ebKQM38IOrBJ7/zZk
mCbwlsWan/PGY3Dj5CR0rQjI01WgFXpXpM6u7fZo8h582JY1dHp50OlWLL3F00DR
zfmzzPzHRj1XeT+n
-----END CERTIFICATE-----
